target datalayout = "e-m:e-p270:32:32-p271:32:32-p272:64:64-i64:64-i128:128-f80:128-n8:16:32:64-S128"
target triple = "x86_64-pc-linux-gnu"

%"class.std::__cxx11::basic_string" = type { %"struct.std::__cxx11::basic_string<char>::_Alloc_hider", i64, %union.anon }
%"struct.std::__cxx11::basic_string<char>::_Alloc_hider" = type { ptr }
%union.anon = type { i64, [8 x i8] }
%"class.std::basic_ios" = type { %"class.std::ios_base", ptr, i8, i8, ptr, ptr, ptr, ptr }
%"class.std::ios_base" = type { ptr, i64, i64, i32, i32, i32, ptr, %"struct.std::ios_base::_Words", [8 x %"struct.std::ios_base::_Words"], i32, ptr, %"class.std::locale" }
%"struct.std::ios_base::_Words" = type { ptr, i64 }
%"class.std::locale" = type { ptr }
%"class.std::shared_ptr" = type { %"class.std::__shared_ptr" }
%"class.std::__shared_ptr" = type { ptr, %"class.std::__shared_count" }
%"class.std::__shared_count" = type { ptr }
%"class.open_spiel::cursor_go::CursorGoState" = type { %"class.open_spiel::State.base", [4 x i8], %"class.open_spiel::go::GoBoard", %"class.std::unordered_set", float, i32, i32, i8, i32, i8, i8, i8, %"struct.std::array.17" }
%"class.open_spiel::State.base" = type <{ ptr, %"class.std::shared_ptr", i32, i32, %"class.std::vector", i32 }>
%"class.std::vector" = type { %"struct.std::_Vector_base" }
%"struct.std::_Vector_base" = type { %"struct.std::_Vector_base<open_spiel::State::PlayerAction, std::allocator<open_spiel::State::PlayerAction>>::_Vector_impl" }
%"struct.std::_Vector_base<open_spiel::State::PlayerAction, std::allocator<open_spiel::State::PlayerAction>>::_Vector_impl" = type { %"struct.std::_Vector_base<open_spiel::State::PlayerAction, std::allocator<open_spiel::State::PlayerAction>>::_Vector_impl_data" }
%"struct.std::_Vector_base<open_spiel::State::PlayerAction, std::allocator<open_spiel::State::PlayerAction>>::_Vector_impl_data" = type { ptr, ptr, ptr }
%"class.open_spiel::go::GoBoard" = type <{ %"struct.std::array", [2 x i8], %"struct.std::array.9", [4 x i8], i64, %"struct.std::array.10", i32, i32, i16, [6 x i8] }>
%"struct.std::array" = type { [441 x %"struct.open_spiel::go::GoBoard::Vertex"] }
%"struct.open_spiel::go::GoBoard::Vertex" = type { i16, i16, i8 }
%"struct.std::array.9" = type { [441 x %"struct.open_spiel::go::GoBoard::Chain"] }
%"struct.open_spiel::go::GoBoard::Chain" = type { i32, i16, i16, i16 }
%"struct.std::array.10" = type { [4 x i16] }
%"class.std::unordered_set" = type { %"class.std::_Hashtable" }
%"class.std::_Hashtable" = type { ptr, i64, %"struct.std::__detail::_Hash_node_base", i64, %"struct.std::__detail::_Prime_rehash_policy", ptr }
%"struct.std::__detail::_Hash_node_base" = type { ptr }
%"struct.std::__detail::_Prime_rehash_policy" = type { float, i64 }
%"struct.std::array.17" = type { [2 x %"struct.std::pair.18"] }
%"struct.std::pair.18" = type { i32, i32 }
%"class.open_spiel::State" = type <{ ptr, %"class.std::shared_ptr", i32, i32, %"class.std::vector", i32, [4 x i8] }>
%"class.std::basic_ostream.base" = type { ptr }
%"class.std::__cxx11::basic_stringbuf" = type { %"class.std::basic_streambuf", i32, %"class.std::__cxx11::basic_string" }
%"class.std::basic_streambuf" = type { ptr, ptr, ptr, ptr, ptr, ptr, ptr, %"class.std::locale" }
%"class.std::__cxx11::basic_stringstream" = type { %"class.std::basic_iostream.base", %"class.std::__cxx11::basic_stringbuf", %"class.std::basic_ios" }
%"class.std::basic_iostream.base" = type { %"class.std::basic_istream.base", %"class.std::basic_ostream.base" }
%"class.std::basic_istream.base" = type { ptr, i64 }

@.str.31 = private unnamed_addr constant [20 x i8] c"CursorGoState(komi=\00", align 1
@.str.32 = private unnamed_addr constant [11 x i8] c", to_play=\00", align 1
@.str.33 = private unnamed_addr constant [18 x i8] c", history.size()=\00", align 1
@.str.34 = private unnamed_addr constant [22 x i8] c", cursor_moves_count=\00", align 1
@.str.35 = private unnamed_addr constant [3 x i8] c")\0A\00", align 1
@.str.36 = private unnamed_addr constant [10 x i8] c"\0ACursor: \00", align 1

; Function Attrs: mustprogress nounwind uwtable
define linkonce_odr noundef nonnull align 4 dereferenceable(8) ptr @_ZNSt14__array_traitsISt4pairIiiELm2EE6_S_refERA2_KS1_m(ptr noundef nonnull align 4 dereferenceable(16) %0, i64 noundef %1) #5 comdat align 2 {
  %3 = alloca ptr, align 8
  %4 = alloca i64, align 8
  store ptr %0, ptr %3, align 8
  store i64 %1, ptr %4, align 8
  %5 = load ptr, ptr %3, align 8
  %6 = load i64, ptr %4, align 8
  %7 = getelementptr inbounds [2 x %"struct.std::pair.18"], ptr %5, i64 0, i64 %6
  ret ptr %7
}

; Function Attrs: mustprogress nounwind uwtable
define linkonce_odr noundef nonnull align 4 dereferenceable(8) ptr @_ZNKSt5arrayISt4pairIiiELm2EEixEm(ptr noundef nonnull align 4 dereferenceable(16) %0, i64 noundef %1) #5 comdat align 2 {
  %3 = alloca ptr, align 8
  %4 = alloca i64, align 8
  store ptr %0, ptr %3, align 8
  store i64 %1, ptr %4, align 8
  %5 = load ptr, ptr %3, align 8
  %6 = getelementptr inbounds nuw %"struct.std::array.17", ptr %5, i32 0, i32 0
  %7 = load i64, ptr %4, align 8
  %8 = call noundef nonnull align 4 dereferenceable(8) ptr @_ZNSt14__array_traitsISt4pairIiiELm2EE6_S_refERA2_KS1_m(ptr noundef nonnull align 4 dereferenceable(16) %6, i64 noundef %7) #3
  ret ptr %8
}

; Function Attrs: mustprogress nounwind uwtable
define linkonce_odr noundef i32 @_ZN10open_spiel9cursor_go13ColorToPlayerENS_2go7GoColorE(i8 noundef zeroext %0) #5 comdat {
  %2 = alloca i8, align 1
  store i8 %0, ptr %2, align 1
  %3 = load i8, ptr %2, align 1
  %4 = zext i8 %3 to i32
  ret i32 %4
}

; Function Attrs: mustprogress nounwind uwtable
define linkonce_odr noundef i64 @_ZNKSt6vectorIN10open_spiel5State12PlayerActionESaIS2_EE4sizeEv(ptr noundef nonnull align 8 dereferenceable(24) %0) #5 comdat align 2 {
  %2 = alloca ptr, align 8
  store ptr %0, ptr %2, align 8
  %3 = load ptr, ptr %2, align 8
  %4 = getelementptr inbounds nuw %"struct.std::_Vector_base", ptr %3, i32 0, i32 0
  %5 = getelementptr inbounds nuw %"struct.std::_Vector_base<open_spiel::State::PlayerAction, std::allocator<open_spiel::State::PlayerAction>>::_Vector_impl_data", ptr %4, i32 0, i32 1
  %6 = load ptr, ptr %5, align 8
  %7 = getelementptr inbounds nuw %"struct.std::_Vector_base", ptr %3, i32 0, i32 0
  %8 = getelementptr inbounds nuw %"struct.std::_Vector_base<open_spiel::State::PlayerAction, std::allocator<open_spiel::State::PlayerAction>>::_Vector_impl_data", ptr %7, i32 0, i32 0
  %9 = load ptr, ptr %8, align 8
  %10 = ptrtoint ptr %6 to i64
  %11 = ptrtoint ptr %9 to i64
  %12 = sub i64 %10, %11
  %13 = sdiv exact i64 %12, 16
  ret i64 %13
}

; Function Attrs: mustprogress uwtable
define void @_ZNK10open_spiel9cursor_go13CursorGoState8ToStringB5cxx11Ev(ptr dead_on_unwind noalias writable sret(%"class.std::__cxx11::basic_string") align 8 %0, ptr noundef nonnull align 8 dereferenceable(8136) %1) unnamed_addr #4 align 2 personality ptr @__gxx_personality_v0 {
  %3 = alloca ptr, align 8
  %4 = alloca ptr, align 8
  %5 = alloca %"class.std::__cxx11::basic_stringstream", align 8
  %6 = alloca ptr, align 8
  %7 = alloca i32, align 4
  %8 = alloca %"class.std::__cxx11::basic_string", align 8
  %9 = alloca %"class.std::__cxx11::basic_string", align 8
  %10 = alloca %"struct.std::pair.18", align 4
  store ptr %0, ptr %3, align 8
  store ptr %1, ptr %4, align 8
  %11 = load ptr, ptr %4, align 8
  call void @_ZNSt7__cxx1118basic_stringstreamIcSt11char_traitsIcESaIcEEC1Ev(ptr noundef nonnull align 8 dereferenceable(128) %5)
  %12 = getelementptr inbounds i8, ptr %5, i64 16
  %13 = invoke noundef nonnull align 8 dereferenceable(8) ptr @_ZStlsISt11char_traitsIcEERSt13basic_ostreamIcT_ES5_PKc(ptr noundef nonnull align 8 dereferenceable(8) %12, ptr noundef @.str.31)
          to label %14 unwind label %31

14:                                               ; preds = %2
  %15 = getelementptr inbounds nuw %"class.open_spiel::cursor_go::CursorGoState", ptr %11, i32 0, i32 4
  %16 = load float, ptr %15, align 8
  %17 = invoke noundef nonnull align 8 dereferenceable(8) ptr @_ZNSolsEf(ptr noundef nonnull align 8 dereferenceable(8) %13, float noundef %16)
          to label %18 unwind label %31

18:                                               ; preds = %14
  %19 = getelementptr inbounds nuw %"class.open_spiel::cursor_go::CursorGoState", ptr %11, i32 0, i32 11
  %20 = load i8, ptr %19, align 2
  %21 = trunc i8 %20 to i1
  br i1 %21, label %39, label %22

22:                                               ; preds = %18
  %23 = getelementptr inbounds i8, ptr %5, i64 16
  %24 = invoke noundef nonnull align 8 dereferenceable(8) ptr @_ZStlsISt11char_traitsIcEERSt13basic_ostreamIcT_ES5_PKc(ptr noundef nonnull align 8 dereferenceable(8) %23, ptr noundef @.str.32)
          to label %25 unwind label %31

25:                                               ; preds = %22
  %26 = getelementptr inbounds nuw %"class.open_spiel::cursor_go::CursorGoState", ptr %11, i32 0, i32 7
  %27 = load i8, ptr %26, align 4
  invoke void @_ZN10open_spiel2go15GoColorToStringB5cxx11ENS0_7GoColorE(ptr dead_on_unwind writable sret(%"class.std::__cxx11::basic_string") align 8 %8, i8 noundef zeroext %27)
          to label %28 unwind label %31

28:                                               ; preds = %25
  %29 = invoke noundef nonnull align 8 dereferenceable(8) ptr @_ZStlsIcSt11char_traitsIcESaIcEERSt13basic_ostreamIT_T0_ES7_RKNSt7__cxx1112basic_stringIS4_S5_T1_EE(ptr noundef nonnull align 8 dereferenceable(8) %24, ptr noundef nonnull align 8 dereferenceable(32) %8)
          to label %30 unwind label %35

30:                                               ; preds = %28
  call void @_ZNSt7__cxx1112basic_stringIcSt11char_traitsIcESaIcEED1Ev(ptr noundef nonnull align 8 dereferenceable(32) %8) #3
  br label %39

31:                                               ; preds = %89, %81, %76, %71, %68, %61, %58, %53, %50, %42, %39, %25, %22, %14, %2
  %32 = landingpad { ptr, i32 }
          cleanup
  %33 = extractvalue { ptr, i32 } %32, 0
  store ptr %33, ptr %6, align 8
  %34 = extractvalue { ptr, i32 } %32, 1
  store i32 %34, ptr %7, align 4
  br label %91

35:                                               ; preds = %28
  %36 = landingpad { ptr, i32 }
          cleanup
  %37 = extractvalue { ptr, i32 } %36, 0
  store ptr %37, ptr %6, align 8
  %38 = extractvalue { ptr, i32 } %36, 1
  store i32 %38, ptr %7, align 4
  call void @_ZNSt7__cxx1112basic_stringIcSt11char_traitsIcESaIcEED1Ev(ptr noundef nonnull align 8 dereferenceable(32) %8) #3
  br label %91

39:                                               ; preds = %30, %18
  %40 = getelementptr inbounds i8, ptr %5, i64 16
  %41 = invoke noundef nonnull align 8 dereferenceable(8) ptr @_ZStlsISt11char_traitsIcEERSt13basic_ostreamIcT_ES5_PKc(ptr noundef nonnull align 8 dereferenceable(8) %40, ptr noundef @.str.33)
          to label %42 unwind label %31

42:                                               ; preds = %39
  %43 = getelementptr inbounds nuw %"class.open_spiel::State", ptr %11, i32 0, i32 4
  %44 = call noundef i64 @_ZNKSt6vectorIN10open_spiel5State12PlayerActionESaIS2_EE4sizeEv(ptr noundef nonnull align 8 dereferenceable(24) %43) #3
  %45 = invoke noundef nonnull align 8 dereferenceable(8) ptr @_ZNSolsEm(ptr noundef nonnull align 8 dereferenceable(8) %41, i64 noundef %44)
          to label %46 unwind label %31

46:                                               ; preds = %42
  %47 = getelementptr inbounds nuw %"class.open_spiel::cursor_go::CursorGoState", ptr %11, i32 0, i32 11
  %48 = load i8, ptr %47, align 2
  %49 = trunc i8 %48 to i1
  br i1 %49, label %58, label %50

50:                                               ; preds = %46
  %51 = getelementptr inbounds i8, ptr %5, i64 16
  %52 = invoke noundef nonnull align 8 dereferenceable(8) ptr @_ZStlsISt11char_traitsIcEERSt13basic_ostreamIcT_ES5_PKc(ptr noundef nonnull align 8 dereferenceable(8) %51, ptr noundef @.str.34)
          to label %53 unwind label %31

53:                                               ; preds = %50
  %54 = getelementptr inbounds nuw %"class.open_spiel::cursor_go::CursorGoState", ptr %11, i32 0, i32 8
  %55 = load i32, ptr %54, align 8
  %56 = invoke noundef nonnull align 8 dereferenceable(8) ptr @_ZNSolsEi(ptr noundef nonnull align 8 dereferenceable(8) %52, i32 noundef %55)
          to label %57 unwind label %31

57:                                               ; preds = %53
  br label %58

58:                                               ; preds = %57, %46
  %59 = getelementptr inbounds i8, ptr %5, i64 16
  %60 = invoke noundef nonnull align 8 dereferenceable(8) ptr @_ZStlsISt11char_traitsIcEERSt13basic_ostreamIcT_ES5_PKc(ptr noundef nonnull align 8 dereferenceable(8) %59, ptr noundef @.str.35)
          to label %61 unwind label %31

61:                                               ; preds = %58
  %62 = getelementptr inbounds nuw %"class.open_spiel::cursor_go::CursorGoState", ptr %11, i32 0, i32 2
  %63 = invoke noundef nonnull align 8 dereferenceable(8) ptr @_ZN10open_spiel2golsERSoRKNS0_7GoBoardE(ptr noundef nonnull align 8 dereferenceable(8) %60, ptr noundef nonnull align 8 dereferenceable(7970) %62)
          to label %64 unwind label %31

64:                                               ; preds = %61
  %65 = getelementptr inbounds nuw %"class.open_spiel::cursor_go::CursorGoState", ptr %11, i32 0, i32 11
  %66 = load i8, ptr %65, align 2
  %67 = trunc i8 %66 to i1
  br i1 %67, label %89, label %68

68:                                               ; preds = %64
  %69 = getelementptr inbounds i8, ptr %5, i64 16
  %70 = invoke noundef nonnull align 8 dereferenceable(8) ptr @_ZStlsISt11char_traitsIcEERSt13basic_ostreamIcT_ES5_PKc(ptr noundef nonnull align 8 dereferenceable(8) %69, ptr noundef @.str.36)
          to label %71 unwind label %31

71:                                               ; preds = %68
  %72 = getelementptr inbounds nuw %"class.open_spiel::cursor_go::CursorGoState", ptr %11, i32 0, i32 12
  %73 = getelementptr inbounds nuw %"class.open_spiel::cursor_go::CursorGoState", ptr %11, i32 0, i32 7
  %74 = load i8, ptr %73, align 4
  %75 = invoke noundef i32 @_ZN10open_spiel9cursor_go13ColorToPlayerENS_2go7GoColorE(i8 noundef zeroext %74)
          to label %76 unwind label %31

76:                                               ; preds = %71
  %77 = sext i32 %75 to i64
  %78 = call noundef nonnull align 4 dereferenceable(8) ptr @_ZNKSt5arrayISt4pairIiiELm2EEixEm(ptr noundef nonnull align 4 dereferenceable(16) %72, i64 noundef %77) #3
  call void @llvm.memcpy.p0.p0.i64(ptr align 4 %10, ptr align 4 %78, i64 8, i1 false)
  %79 = load i64, ptr %10, align 4
  %80 = invoke noundef zeroext i16 @_ZN10open_spiel2go23VirtualPointFrom2DPointESt4pairIiiE(i64 %79)
          to label %81 unwind label %31

81:                                               ; preds = %76
  invoke void @_ZN10open_spiel2go20VirtualPointToStringB5cxx11Et(ptr dead_on_unwind writable sret(%"class.std::__cxx11::basic_string") align 8 %9, i16 noundef zeroext %80)
          to label %82 unwind label %31

82:                                               ; preds = %81
  %83 = invoke noundef nonnull align 8 dereferenceable(8) ptr @_ZStlsIcSt11char_traitsIcESaIcEERSt13basic_ostreamIT_T0_ES7_RKNSt7__cxx1112basic_stringIS4_S5_T1_EE(ptr noundef nonnull align 8 dereferenceable(8) %70, ptr noundef nonnull align 8 dereferenceable(32) %9)
          to label %84 unwind label %85

84:                                               ; preds = %82
  call void @_ZNSt7__cxx1112basic_stringIcSt11char_traitsIcESaIcEED1Ev(ptr noundef nonnull align 8 dereferenceable(32) %9) #3
  br label %89

85:                                               ; preds = %82
  %86 = landingpad { ptr, i32 }
          cleanup
  %87 = extractvalue { ptr, i32 } %86, 0
  store ptr %87, ptr %6, align 8
  %88 = extractvalue { ptr, i32 } %86, 1
  store i32 %88, ptr %7, align 4
  call void @_ZNSt7__cxx1112basic_stringIcSt11char_traitsIcESaIcEED1Ev(ptr noundef nonnull align 8 dereferenceable(32) %9) #3
  br label %91

89:                                               ; preds = %84, %64
  invoke void @_ZNKSt7__cxx1118basic_stringstreamIcSt11char_traitsIcESaIcEE3strEv(ptr dead_on_unwind writable sret(%"class.std::__cxx11::basic_string") align 8 %0, ptr noundef nonnull align 8 dereferenceable(128) %5)
          to label %90 unwind label %31

90:                                               ; preds = %89
  call void @_ZNSt7__cxx1118basic_stringstreamIcSt11char_traitsIcESaIcEED1Ev(ptr noundef nonnull align 8 dereferenceable(128) %5) #3
  ret void

91:                                               ; preds = %85, %35, %31
  call void @_ZNSt7__cxx1118basic_stringstreamIcSt11char_traitsIcESaIcEED1Ev(ptr noundef nonnull align 8 dereferenceable(128) %5) #3
  br label %92

92:                                               ; preds = %91
  %93 = load ptr, ptr %6, align 8
  %94 = load i32, ptr %7, align 4
  %95 = insertvalue { ptr, i32 } poison, ptr %93, 0
  %96 = insertvalue { ptr, i32 } %95, i32 %94, 1
  resume { ptr, i32 } %96
}