; Function Attrs: mustprogress uwtable
define void @_ZNK10open_spiel9cursor_go13CursorGoState8ToStringB5cxx11Ev(ptr dead_on_unwind noalias writable sret(%"class.std::__cxx11::basic_string") align 8 %0, ptr noundef nonnull align 8 dereferenceable(8136) %1) unnamed_addr #3 align 2 personality ptr @__gxx_personality_v0 {
  %3 = alloca %"class.std::__cxx11::basic_stringstream", align 8
  %4 = alloca %"class.std::__cxx11::basic_string", align 8
  %5 = alloca %"class.std::__cxx11::basic_string", align 8
  call void @_ZNSt7__cxx1118basic_stringstreamIcSt11char_traitsIcESaIcEEC1Ev(ptr noundef nonnull align 8 dereferenceable(128) %3)
  %6 = getelementptr inbounds i8, ptr %3, i64 16
  %7 = invoke noundef nonnull align 8 dereferenceable(8) ptr @_ZStlsISt11char_traitsIcEERSt13basic_ostreamIcT_ES5_PKc(ptr noundef nonnull align 8 dereferenceable(8) %6, ptr noundef nonnull @.str.31)
          to label %8 unwind label %24

8:                                                ; preds = %2
  %9 = getelementptr inbounds nuw i8, ptr %1, i64 8096
  %10 = load float, ptr %9, align 8
  %11 = invoke noundef nonnull align 8 dereferenceable(8) ptr @_ZNSolsEf(ptr noundef nonnull align 8 dereferenceable(8) %7, float noundef %10)
          to label %12 unwind label %24

12:                                               ; preds = %8
  %13 = getelementptr inbounds nuw i8, ptr %1, i64 8118
  %14 = load i8, ptr %13, align 2
  %15 = trunc i8 %14 to i1
  br i1 %15, label %28, label %16

16:                                               ; preds = %12
  %17 = invoke noundef nonnull align 8 dereferenceable(8) ptr @_ZStlsISt11char_traitsIcEERSt13basic_ostreamIcT_ES5_PKc(ptr noundef nonnull align 8 dereferenceable(8) %6, ptr noundef nonnull @.str.32)
          to label %18 unwind label %24

18:                                               ; preds = %16
  %19 = getelementptr inbounds nuw i8, ptr %1, i64 8108
  %20 = load i8, ptr %19, align 4
  invoke void @_ZN10open_spiel2go15GoColorToStringB5cxx11ENS0_7GoColorE(ptr dead_on_unwind nonnull writable sret(%"class.std::__cxx11::basic_string") align 8 %4, i8 noundef zeroext %20)
          to label %21 unwind label %24

21:                                               ; preds = %18
  %22 = invoke noundef nonnull align 8 dereferenceable(8) ptr @_ZStlsIcSt11char_traitsIcESaIcEERSt13basic_ostreamIT_T0_ES7_RKNSt7__cxx1112basic_stringIS4_S5_T1_EE(ptr noundef nonnull align 8 dereferenceable(8) %17, ptr noundef nonnull align 8 dereferenceable(32) %4)
          to label %23 unwind label %26

23:                                               ; preds = %21
  call void @_ZNSt7__cxx1112basic_stringIcSt11char_traitsIcESaIcEED1Ev(ptr noundef nonnull align 8 dereferenceable(32) %4) #22
  br label %28

24:                                               ; preds = %72, %66, %59, %57, %51, %49, %45, %43, %30, %28, %18, %16, %8, %2
  %25 = landingpad { ptr, i32 }
          cleanup
  br label %74

26:                                               ; preds = %21
  %27 = landingpad { ptr, i32 }
          cleanup
  call void @_ZNSt7__cxx1112basic_stringIcSt11char_traitsIcESaIcEED1Ev(ptr noundef nonnull align 8 dereferenceable(32) %4) #22
  br label %74

28:                                               ; preds = %23, %12
  %29 = invoke noundef nonnull align 8 dereferenceable(8) ptr @_ZStlsISt11char_traitsIcEERSt13basic_ostreamIcT_ES5_PKc(ptr noundef nonnull align 8 dereferenceable(8) %6, ptr noundef nonnull @.str.33)
          to label %30 unwind label %24

30:                                               ; preds = %28
  %31 = getelementptr inbounds nuw i8, ptr %1, i64 32
  %32 = getelementptr inbounds i8, ptr %1, i64 40
  %33 = load ptr, ptr %32, align 8
  %34 = load ptr, ptr %31, align 8
  %35 = ptrtoint ptr %33 to i64
  %36 = ptrtoint ptr %34 to i64
  %37 = sub i64 %35, %36
  %38 = ashr exact i64 %37, 4
  %39 = invoke noundef nonnull align 8 dereferenceable(8) ptr @_ZNSolsEm(ptr noundef nonnull align 8 dereferenceable(8) %29, i64 noundef %38)
          to label %40 unwind label %24

40:                                               ; preds = %30
  %41 = load i8, ptr %13, align 2
  %42 = trunc i8 %41 to i1
  br i1 %42, label %49, label %43

43:                                               ; preds = %40
  %44 = invoke noundef nonnull align 8 dereferenceable(8) ptr @_ZStlsISt11char_traitsIcEERSt13basic_ostreamIcT_ES5_PKc(ptr noundef nonnull align 8 dereferenceable(8) %6, ptr noundef nonnull @.str.34)
          to label %45 unwind label %24

45:                                               ; preds = %43
  %46 = getelementptr inbounds nuw i8, ptr %1, i64 8112
  %47 = load i32, ptr %46, align 8
  %48 = invoke noundef nonnull align 8 dereferenceable(8) ptr @_ZNSolsEi(ptr noundef nonnull align 8 dereferenceable(8) %44, i32 noundef %47)
          to label %49 unwind label %24

49:                                               ; preds = %45, %40
  %50 = invoke noundef nonnull align 8 dereferenceable(8) ptr @_ZStlsISt11char_traitsIcEERSt13basic_ostreamIcT_ES5_PKc(ptr noundef nonnull align 8 dereferenceable(8) %6, ptr noundef nonnull @.str.35)
          to label %51 unwind label %24

51:                                               ; preds = %49
  %52 = getelementptr inbounds nuw i8, ptr %1, i64 64
  %53 = invoke noundef nonnull align 8 dereferenceable(8) ptr @_ZN10open_spiel2golsERSoRKNS0_7GoBoardE(ptr noundef nonnull align 8 dereferenceable(8) %50, ptr noundef nonnull align 8 dereferenceable(7970) %52)
          to label %54 unwind label %24

54:                                               ; preds = %51
  %55 = load i8, ptr %13, align 2
  %56 = trunc i8 %55 to i1
  br i1 %56, label %72, label %57

57:                                               ; preds = %54
  %58 = invoke noundef nonnull align 8 dereferenceable(8) ptr @_ZStlsISt11char_traitsIcEERSt13basic_ostreamIcT_ES5_PKc(ptr noundef nonnull align 8 dereferenceable(8) %6, ptr noundef nonnull @.str.36)
          to label %59 unwind label %24

59:                                               ; preds = %57
  %60 = getelementptr inbounds nuw i8, ptr %1, i64 8120
  %61 = getelementptr inbounds nuw i8, ptr %1, i64 8108
  %62 = load i8, ptr %61, align 4
  %63 = zext i8 %62 to i64
  %64 = getelementptr inbounds [2 x %"struct.std::pair.18"], ptr %60, i64 0, i64 %63
  %.sroa.0.0.copyload = load i64, ptr %64, align 8
  %65 = invoke noundef zeroext i16 @_ZN10open_spiel2go23VirtualPointFrom2DPointESt4pairIiiE(i64 %.sroa.0.0.copyload)
          to label %66 unwind label %24

66:                                               ; preds = %59
  invoke void @_ZN10open_spiel2go20VirtualPointToStringB5cxx11Et(ptr dead_on_unwind nonnull writable sret(%"class.std::__cxx11::basic_string") align 8 %5, i16 noundef zeroext %65)
          to label %67 unwind label %24

67:                                               ; preds = %66
  %68 = invoke noundef nonnull align 8 dereferenceable(8) ptr @_ZStlsIcSt11char_traitsIcESaIcEERSt13basic_ostreamIT_T0_ES7_RKNSt7__cxx1112basic_stringIS4_S5_T1_EE(ptr noundef nonnull align 8 dereferenceable(8) %58, ptr noundef nonnull align 8 dereferenceable(32) %5)
          to label %69 unwind label %70

69:                                               ; preds = %67
  call void @_ZNSt7__cxx1112basic_stringIcSt11char_traitsIcESaIcEED1Ev(ptr noundef nonnull align 8 dereferenceable(32) %5) #22
  br label %72

70:                                               ; preds = %67
  %71 = landingpad { ptr, i32 }
          cleanup
  call void @_ZNSt7__cxx1112basic_stringIcSt11char_traitsIcESaIcEED1Ev(ptr noundef nonnull align 8 dereferenceable(32) %5) #22
  br label %74

72:                                               ; preds = %69, %54
  invoke void @_ZNKSt7__cxx1118basic_stringstreamIcSt11char_traitsIcESaIcEE3strEv(ptr dead_on_unwind writable sret(%"class.std::__cxx11::basic_string") align 8 %0, ptr noundef nonnull align 8 dereferenceable(128) %3)
          to label %73 unwind label %24

73:                                               ; preds = %72
  call void @_ZNSt7__cxx1118basic_stringstreamIcSt11char_traitsIcESaIcEED1Ev(ptr noundef nonnull align 8 dereferenceable(128) %3) #22
  ret void

74:                                               ; preds = %70, %26, %24
  %.pn = phi { ptr, i32 } [ %25, %24 ], [ %71, %70 ], [ %27, %26 ]
  call void @_ZNSt7__cxx1118basic_stringstreamIcSt11char_traitsIcESaIcEED1Ev(ptr noundef nonnull align 8 dereferenceable(128) %3) #22
  resume { ptr, i32 } %.pn
}